target datalayout = "e-m:e-p270:32:32-p271:32:32-p272:64:64-i64:64-i128:128-f80:128-n8:16:32:64-S128"
target triple = "x86_64-pc-linux-gnu"

%class.BigUnsignedInABase = type <{ %class.NumberlikeArray, i16, [6 x i8] }>
%class.NumberlikeArray = type { i32, i32, ptr }

@.str = private unnamed_addr constant [96 x i8] c"BigUnsignedInABase::BigUnsignedInABase(const Digit *, Index, Base): The base must be at least 2\00", align 1
@_ZTIPKc = external constant ptr
@.str.1 = private unnamed_addr constant [112 x i8] c"BigUnsignedInABase::BigUnsignedInABase(const Digit *, Index, Base): A digit is too large for the specified base\00", align 1

; Function Attrs: mustprogress nounwind uwtable
define linkonce_odr void @_ZN15NumberlikeArrayItED2Ev(ptr noundef nonnull align 8 dereferenceable(16) %0) unnamed_addr #2 comdat align 2 {
  %2 = alloca ptr, align 8
  store ptr %0, ptr %2, align 8, !tbaa !25
  %3 = load ptr, ptr %2, align 8
  %4 = getelementptr inbounds nuw %class.NumberlikeArray, ptr %3, i32 0, i32 2
  %5 = load ptr, ptr %4, align 8, !tbaa !22
  %6 = icmp eq ptr %5, null
  br i1 %6, label %8, label %7

7:                                                ; preds = %1
  call void @_ZdaPv(ptr noundef %5) #17
  br label %8

8:                                                ; preds = %7, %1
  ret void
}

; Function Attrs: mustprogress nounwind uwtable
define linkonce_odr void @_ZN18BigUnsignedInABase15zapLeadingZerosEv(ptr noundef nonnull align 8 dereferenceable(18) %0) #2 comdat align 2 {
  %2 = alloca ptr, align 8
  store ptr %0, ptr %2, align 8, !tbaa !6
  %3 = load ptr, ptr %2, align 8
  br label %4

4:                                                ; preds = %21, %1
  %5 = getelementptr inbounds nuw %class.NumberlikeArray, ptr %3, i32 0, i32 1
  %6 = load i32, ptr %5, align 4, !tbaa !28
  %7 = icmp ugt i32 %6, 0
  br i1 %7, label %8, label %19

8:                                                ; preds = %4
  %9 = getelementptr inbounds nuw %class.NumberlikeArray, ptr %3, i32 0, i32 2
  %10 = load ptr, ptr %9, align 8, !tbaa !22
  %11 = getelementptr inbounds nuw %class.NumberlikeArray, ptr %3, i32 0, i32 1
  %12 = load i32, ptr %11, align 4, !tbaa !28
  %13 = sub i32 %12, 1
  %14 = zext i32 %13 to i64
  %15 = getelementptr inbounds nuw i16, ptr %10, i64 %14
  %16 = load i16, ptr %15, align 2, !tbaa !15
  %17 = zext i16 %16 to i32
  %18 = icmp eq i32 %17, 0
  br label %19

19:                                               ; preds = %8, %4
  %20 = phi i1 [ false, %4 ], [ %18, %8 ]
  br i1 %20, label %21, label %25

21:                                               ; preds = %19
  %22 = getelementptr inbounds nuw %class.NumberlikeArray, ptr %3, i32 0, i32 1
  %23 = load i32, ptr %22, align 4, !tbaa !28
  %24 = add i32 %23, -1
  store i32 %24, ptr %22, align 4, !tbaa !28
  br label %4, !llvm.loop !30

25:                                               ; preds = %19
  ret void
}

; Function Attrs: mustprogress uwtable
define linkonce_odr void @_ZN15NumberlikeArrayItEC2EPKtj(ptr noundef nonnull align 8 dereferenceable(16) %0, ptr noundef %1, i32 noundef %2) unnamed_addr #0 comdat align 2 {
  %4 = alloca ptr, align 8
  %5 = alloca ptr, align 8
  %6 = alloca i32, align 4
  %7 = alloca i32, align 4
  store ptr %0, ptr %4, align 8, !tbaa !25
  store ptr %1, ptr %5, align 8, !tbaa !11
  store i32 %2, ptr %6, align 4, !tbaa !13
  %8 = load ptr, ptr %4, align 8
  %9 = getelementptr inbounds nuw %class.NumberlikeArray, ptr %8, i32 0, i32 0
  %10 = load i32, ptr %6, align 4, !tbaa !13
  store i32 %10, ptr %9, align 8, !tbaa !27
  %11 = getelementptr inbounds nuw %class.NumberlikeArray, ptr %8, i32 0, i32 1
  %12 = load i32, ptr %6, align 4, !tbaa !13
  store i32 %12, ptr %11, align 4, !tbaa !28
  %13 = getelementptr inbounds nuw %class.NumberlikeArray, ptr %8, i32 0, i32 0
  %14 = load i32, ptr %13, align 8, !tbaa !27
  %15 = zext i32 %14 to i64
  %16 = call { i64, i1 } @llvm.umul.with.overflow.i64(i64 %15, i64 2)
  %17 = extractvalue { i64, i1 } %16, 1
  %18 = extractvalue { i64, i1 } %16, 0
  %19 = select i1 %17, i64 -1, i64 %18
  %20 = call noalias noundef nonnull ptr @_Znam(i64 noundef %19) #16
  %21 = getelementptr inbounds nuw %class.NumberlikeArray, ptr %8, i32 0, i32 2
  store ptr %20, ptr %21, align 8, !tbaa !22
  call void @llvm.lifetime.start.p0(i64 4, ptr %7) #14
  store i32 0, ptr %7, align 4, !tbaa !13
  br label %22

22:                                               ; preds = %38, %3
  %23 = load i32, ptr %7, align 4, !tbaa !13
  %24 = getelementptr inbounds nuw %class.NumberlikeArray, ptr %8, i32 0, i32 1
  %25 = load i32, ptr %24, align 4, !tbaa !28
  %26 = icmp ult i32 %23, %25
  br i1 %26, label %27, label %41

27:                                               ; preds = %22
  %28 = load ptr, ptr %5, align 8, !tbaa !11
  %29 = load i32, ptr %7, align 4, !tbaa !13
  %30 = zext i32 %29 to i64
  %31 = getelementptr inbounds nuw i16, ptr %28, i64 %30
  %32 = load i16, ptr %31, align 2, !tbaa !15
  %33 = getelementptr inbounds nuw %class.NumberlikeArray, ptr %8, i32 0, i32 2
  %34 = load ptr, ptr %33, align 8, !tbaa !22
  %35 = load i32, ptr %7, align 4, !tbaa !13
  %36 = zext i32 %35 to i64
  %37 = getelementptr inbounds nuw i16, ptr %34, i64 %36
  store i16 %32, ptr %37, align 2, !tbaa !15
  br label %38

38:                                               ; preds = %27
  %39 = load i32, ptr %7, align 4, !tbaa !13
  %40 = add i32 %39, 1
  store i32 %40, ptr %7, align 4, !tbaa !13
  br label %22, !llvm.loop !29

41:                                               ; preds = %22
  call void @llvm.lifetime.end.p0(i64 4, ptr %7) #14
  ret void
}

; Function Attrs: mustprogress uwtable
define void @_ZN18BigUnsignedInABaseC2EPKtjt(ptr noundef nonnull align 8 dereferenceable(18) %0, ptr noundef %1, i32 noundef %2, i16 noundef zeroext %3) unnamed_addr #0 align 2 personality ptr @__gxx_personality_v0 {
  %5 = alloca ptr, align 8
  %6 = alloca ptr, align 8
  %7 = alloca i32, align 4
  %8 = alloca i16, align 2
  %9 = alloca ptr, align 8
  %10 = alloca i32, align 4
  %11 = alloca i32, align 4
  store ptr %0, ptr %5, align 8, !tbaa !6
  store ptr %1, ptr %6, align 8, !tbaa !11
  store i32 %2, ptr %7, align 4, !tbaa !13
  store i16 %3, ptr %8, align 2, !tbaa !15
  %12 = load ptr, ptr %5, align 8
  %13 = load ptr, ptr %6, align 8, !tbaa !11
  %14 = load i32, ptr %7, align 4, !tbaa !13
  call void @_ZN15NumberlikeArrayItEC2EPKtj(ptr noundef nonnull align 8 dereferenceable(16) %12, ptr noundef %13, i32 noundef %14)
  %15 = getelementptr inbounds nuw %class.BigUnsignedInABase, ptr %12, i32 0, i32 1
  %16 = load i16, ptr %8, align 2, !tbaa !15
  store i16 %16, ptr %15, align 8, !tbaa !17
  %17 = load i16, ptr %8, align 2, !tbaa !15
  %18 = zext i16 %17 to i32
  %19 = icmp slt i32 %18, 2
  br i1 %19, label %20, label %26

20:                                               ; preds = %4
  %21 = call ptr @__cxa_allocate_exception(i64 8) #14
  store ptr @.str, ptr %21, align 16, !tbaa !20
  invoke void @__cxa_throw(ptr %21, ptr @_ZTIPKc, ptr null) #15
          to label %61 unwind label %22

22:                                               ; preds = %53, %20
  %23 = landingpad { ptr, i32 }
          cleanup
  %24 = extractvalue { ptr, i32 } %23, 0
  store ptr %24, ptr %9, align 8
  %25 = extractvalue { ptr, i32 } %23, 1
  store i32 %25, ptr %10, align 4
  br label %55

26:                                               ; preds = %4
  call void @llvm.lifetime.start.p0(i64 4, ptr %11) #14
  store i32 0, ptr %11, align 4, !tbaa !13
  br label %27

27:                                               ; preds = %50, %26
  %28 = load i32, ptr %11, align 4, !tbaa !13
  %29 = load i32, ptr %7, align 4, !tbaa !13
  %30 = icmp ult i32 %28, %29
  br i1 %30, label %32, label %31

31:                                               ; preds = %27
  call void @llvm.lifetime.end.p0(i64 4, ptr %11) #14
  br label %53

32:                                               ; preds = %27
  %33 = getelementptr inbounds nuw %class.NumberlikeArray, ptr %12, i32 0, i32 2
  %34 = load ptr, ptr %33, align 8, !tbaa !22
  %35 = load i32, ptr %11, align 4, !tbaa !13
  %36 = zext i32 %35 to i64
  %37 = getelementptr inbounds nuw i16, ptr %34, i64 %36
  %38 = load i16, ptr %37, align 2, !tbaa !15
  %39 = zext i16 %38 to i32
  %40 = load i16, ptr %8, align 2, !tbaa !15
  %41 = zext i16 %40 to i32
  %42 = icmp sge i32 %39, %41
  br i1 %42, label %43, label %49

43:                                               ; preds = %32
  %44 = call ptr @__cxa_allocate_exception(i64 8) #14
  store ptr @.str.1, ptr %44, align 16, !tbaa !20
  invoke void @__cxa_throw(ptr %44, ptr @_ZTIPKc, ptr null) #15
          to label %61 unwind label %45

45:                                               ; preds = %43
  %46 = landingpad { ptr, i32 }
          cleanup
  %47 = extractvalue { ptr, i32 } %46, 0
  store ptr %47, ptr %9, align 8
  %48 = extractvalue { ptr, i32 } %46, 1
  store i32 %48, ptr %10, align 4
  call void @llvm.lifetime.end.p0(i64 4, ptr %11) #14
  br label %55

49:                                               ; preds = %32
  br label %50

50:                                               ; preds = %49
  %51 = load i32, ptr %11, align 4, !tbaa !13
  %52 = add i32 %51, 1
  store i32 %52, ptr %11, align 4, !tbaa !13
  br label %27, !llvm.loop !23

53:                                               ; preds = %31
  invoke void @_ZN18BigUnsignedInABase15zapLeadingZerosEv(ptr noundef nonnull align 8 dereferenceable(18) %12)
          to label %54 unwind label %22

54:                                               ; preds = %53
  ret void

55:                                               ; preds = %45, %22
  call void @_ZN15NumberlikeArrayItED2Ev(ptr noundef nonnull align 8 dereferenceable(16) %12) #14
  br label %56

56:                                               ; preds = %55
  %57 = load ptr, ptr %9, align 8
  %58 = load i32, ptr %10, align 4
  %59 = insertvalue { ptr, i32 } poison, ptr %57, 0
  %60 = insertvalue { ptr, i32 } %59, i32 %58, 1
  resume { ptr, i32 } %60

61:                                               ; preds = %43, %20
  unreachable
}