; Function Attrs: mustprogress uwtable
define void @_ZN18BigUnsignedInABaseC2EPKtjt(ptr noundef nonnull align 8 captures(none) dereferenceable(18) initializes((0, 18)) %0, ptr noundef readonly captures(none) %1, i32 noundef %2, i16 noundef zeroext %3) unnamed_addr #0 align 2 personality ptr @__gxx_personality_v0 {
  store i32 %2, ptr %0, align 8, !tbaa !6
  %5 = getelementptr inbounds nuw i8, ptr %0, i64 4
  store i32 %2, ptr %5, align 4, !tbaa !13
  %6 = zext i32 %2 to i64
  %7 = shl nuw nsw i64 %6, 1
  %8 = tail call noalias noundef nonnull ptr @_Znam(i64 noundef %7) #10
  %9 = getelementptr inbounds nuw i8, ptr %0, i64 8
  store ptr %8, ptr %9, align 8, !tbaa !14
  %.not.i = icmp eq i32 %2, 0
  br i1 %.not.i, label %_ZN15NumberlikeArrayItEC2EPKtj.exit, label %_ZN15NumberlikeArrayItEC2EPKtj.exit.thread

_ZN15NumberlikeArrayItEC2EPKtj.exit:              ; preds = %4
  %10 = getelementptr inbounds nuw i8, ptr %0, i64 16
  store i16 %3, ptr %10, align 8, !tbaa !15
  %11 = icmp ult i16 %3, 2
  br i1 %11, label %14, label %._crit_edge

_ZN15NumberlikeArrayItEC2EPKtj.exit.thread:       ; preds = %4
  tail call void @llvm.memcpy.p0.p0.i64(ptr nonnull align 2 %8, ptr align 2 %1, i64 %7, i1 false), !tbaa !18
  %12 = getelementptr inbounds nuw i8, ptr %0, i64 16
  store i16 %3, ptr %12, align 8, !tbaa !15
  %13 = icmp ult i16 %3, 2
  br i1 %13, label %14, label %.lr.ph

14:                                               ; preds = %_ZN15NumberlikeArrayItEC2EPKtj.exit.thread, %_ZN15NumberlikeArrayItEC2EPKtj.exit
  %15 = tail call ptr @__cxa_allocate_exception(i64 8) #11
  store ptr @.str, ptr %15, align 16, !tbaa !19
  invoke void @__cxa_throw(ptr nonnull %15, ptr nonnull @_ZTIPKc, ptr null) #12
          to label %34 unwind label %16

16:                                               ; preds = %14
  %17 = landingpad { ptr, i32 }
          cleanup
  br label %30

18:                                               ; preds = %.lr.ph
  %indvars.iv.next = add nuw nsw i64 %indvars.iv, 1
  %exitcond.not = icmp eq i64 %indvars.iv.next, %6
  br i1 %exitcond.not, label %._crit_edge, label %.lr.ph, !llvm.loop !21

._crit_edge:                                      ; preds = %18, %_ZN15NumberlikeArrayItEC2EPKtj.exit
  br i1 %.not.i, label %_ZN18BigUnsignedInABase15zapLeadingZerosEv.exit, label %.lr.ph.i

.lr.ph.i:                                         ; preds = %._crit_edge, %23
  %indvars.iv.i = phi i64 [ %indvars.iv.next.i, %23 ], [ %6, %._crit_edge ]
  %indvars.iv.next.i = add nsw i64 %indvars.iv.i, -1
  %19 = and i64 %indvars.iv.next.i, 4294967295
  %20 = getelementptr inbounds nuw i16, ptr %8, i64 %19
  %21 = load i16, ptr %20, align 2, !tbaa !18
  %22 = icmp eq i16 %21, 0
  br i1 %22, label %23, label %_ZN18BigUnsignedInABase15zapLeadingZerosEv.exit

23:                                               ; preds = %.lr.ph.i
  %indvars.i = trunc i64 %indvars.iv.next.i to i32
  store i32 %indvars.i, ptr %5, align 4, !tbaa !13
  %.not.i15 = icmp eq i32 %indvars.i, 0
  br i1 %.not.i15, label %_ZN18BigUnsignedInABase15zapLeadingZerosEv.exit, label %.lr.ph.i, !llvm.loop !23

_ZN18BigUnsignedInABase15zapLeadingZerosEv.exit:  ; preds = %.lr.ph.i, %23, %._crit_edge
  ret void

.lr.ph:                                           ; preds = %_ZN15NumberlikeArrayItEC2EPKtj.exit.thread, %18
  %indvars.iv = phi i64 [ %indvars.iv.next, %18 ], [ 0, %_ZN15NumberlikeArrayItEC2EPKtj.exit.thread ]
  %24 = getelementptr inbounds nuw i16, ptr %8, i64 %indvars.iv
  %25 = load i16, ptr %24, align 2, !tbaa !18
  %.not = icmp ult i16 %25, %3
  br i1 %.not, label %18, label %26

26:                                               ; preds = %.lr.ph
  %27 = tail call ptr @__cxa_allocate_exception(i64 8) #11
  store ptr @.str.1, ptr %27, align 16, !tbaa !19
  invoke void @__cxa_throw(ptr nonnull %27, ptr nonnull @_ZTIPKc, ptr null) #12
          to label %34 unwind label %28

28:                                               ; preds = %26
  %29 = landingpad { ptr, i32 }
          cleanup
  br label %30

30:                                               ; preds = %28, %16
  %.pn = phi { ptr, i32 } [ %17, %16 ], [ %29, %28 ]
  %31 = load ptr, ptr %9, align 8, !tbaa !14
  %32 = icmp eq ptr %31, null
  br i1 %32, label %_ZN15NumberlikeArrayItED2Ev.exit, label %33

33:                                               ; preds = %30
  tail call void @_ZdaPv(ptr noundef nonnull %31) #13
  br label %_ZN15NumberlikeArrayItED2Ev.exit

_ZN15NumberlikeArrayItED2Ev.exit:                 ; preds = %30, %33
  resume { ptr, i32 } %.pn

34:                                               ; preds = %26, %14
  unreachable
}